; Function Attrs: mustprogress nofree nounwind willreturn memory(write, argmem: none, inaccessiblemem: readwrite) uwtable
define dso_local noalias noundef ptr @archive_entry_new2(ptr noundef %0) local_unnamed_addr #5 {
  %2 = tail call noalias dereferenceable_or_null(1176) ptr @calloc(i64 noundef 1, i64 noundef 1176) #24
  %3 = icmp eq ptr %2, null
  br i1 %3, label %5, label %4

4:                                                ; preds = %1
  store ptr %0, ptr %2, align 8, !tbaa !25
  br label %5

5:                                                ; preds = %1, %4
  ret ptr %2
}